target datalayout = "e-m:e-p270:32:32-p271:32:32-p272:64:64-i64:64-i128:128-f80:128-n8:16:32:64-S128"
target triple = "x86_64-pc-linux-gnu"

%"class.testing::internal::MatcherBase" = type { %"class.testing::MatcherDescriberInterface", ptr, %"union.testing::internal::MatcherBase<const std::vector<std::tuple<(anonymous namespace)::Function, const void *, absl::base_internal::ObjectKind>> &>::Buffer" }
%"class.testing::MatcherDescriberInterface" = type { ptr }
%"union.testing::internal::MatcherBase<const std::vector<std::tuple<(anonymous namespace)::Function, const void *, absl::base_internal::ObjectKind>> &>::Buffer" = type { ptr }
%"struct.testing::internal::SharedPayloadBase" = type { %"struct.std::atomic" }
%"struct.std::atomic" = type { %"struct.std::__atomic_base" }
%"struct.std::__atomic_base" = type { i32 }
%"class.std::unique_ptr.69" = type { %"struct.std::__uniq_ptr_data.70" }
%"struct.std::__uniq_ptr_data.70" = type { %"class.std::__uniq_ptr_impl.71" }
%"class.std::__uniq_ptr_impl.71" = type { %"class.std::tuple.72" }
%"class.std::tuple.72" = type { %"struct.std::_Tuple_impl.73" }
%"struct.std::_Tuple_impl.73" = type { %"struct.std::_Head_base.76" }
%"struct.std::_Head_base.76" = type { ptr }
%"struct.testing::internal::SharedPayload.68" = type { %"struct.testing::internal::SharedPayloadBase", %"class.std::unique_ptr.69" }

; Function Attrs: mustprogress nounwind uwtable
define internal noundef nonnull align 8 dereferenceable(8) ptr @_ZNSt10_Head_baseILm0EPKN7testing16MatcherInterfaceIRKSt6vectorISt5tupleIJN12_GLOBAL__N_18FunctionEPKvN4absl13base_internal10ObjectKindEEESaISB_EEEELb0EE7_M_headERKSJ_(ptr noundef nonnull align 8 dereferenceable(8) %0) #7 align 2 {
  %2 = alloca ptr, align 8
  store ptr %0, ptr %2, align 8, !tbaa !314
  %3 = load ptr, ptr %2, align 8, !tbaa !314
  %4 = getelementptr inbounds nuw %"struct.std::_Head_base.76", ptr %3, i32 0, i32 0
  ret ptr %4
}

; Function Attrs: mustprogress nounwind uwtable
define internal noundef nonnull align 8 dereferenceable(8) ptr @_ZNSt11_Tuple_implILm0EJPKN7testing16MatcherInterfaceIRKSt6vectorISt5tupleIJN12_GLOBAL__N_18FunctionEPKvN4absl13base_internal10ObjectKindEEESaISB_EEEESt14default_deleteISH_EEE7_M_headERKSL_(ptr noundef nonnull align 8 dereferenceable(8) %0) #7 align 2 {
  %2 = alloca ptr, align 8
  store ptr %0, ptr %2, align 8, !tbaa !312
  %3 = load ptr, ptr %2, align 8, !tbaa !312
  %4 = call noundef nonnull align 8 dereferenceable(8) ptr @_ZNSt10_Head_baseILm0EPKN7testing16MatcherInterfaceIRKSt6vectorISt5tupleIJN12_GLOBAL__N_18FunctionEPKvN4absl13base_internal10ObjectKindEEESaISB_EEEELb0EE7_M_headERKSJ_(ptr noundef nonnull align 8 dereferenceable(8) %3) #3
  ret ptr %4
}

; Function Attrs: mustprogress nounwind uwtable
define internal noundef nonnull align 8 dereferenceable(8) ptr @_ZSt12__get_helperILm0EPKN7testing16MatcherInterfaceIRKSt6vectorISt5tupleIJN12_GLOBAL__N_18FunctionEPKvN4absl13base_internal10ObjectKindEEESaISB_EEEEJSt14default_deleteISH_EEERKT0_RKSt11_Tuple_implIXT_EJSL_DpT1_EE(ptr noundef nonnull align 8 dereferenceable(8) %0) #7 {
  %2 = alloca ptr, align 8
  store ptr %0, ptr %2, align 8, !tbaa !312
  %3 = load ptr, ptr %2, align 8, !tbaa !312
  %4 = call noundef nonnull align 8 dereferenceable(8) ptr @_ZNSt11_Tuple_implILm0EJPKN7testing16MatcherInterfaceIRKSt6vectorISt5tupleIJN12_GLOBAL__N_18FunctionEPKvN4absl13base_internal10ObjectKindEEESaISB_EEEESt14default_deleteISH_EEE7_M_headERKSL_(ptr noundef nonnull align 8 dereferenceable(8) %3) #3
  ret ptr %4
}

; Function Attrs: mustprogress nounwind uwtable
define internal noundef nonnull align 8 dereferenceable(8) ptr @_ZSt3getILm0EJPKN7testing16MatcherInterfaceIRKSt6vectorISt5tupleIJN12_GLOBAL__N_18FunctionEPKvN4absl13base_internal10ObjectKindEEESaISB_EEEESt14default_deleteISH_EEERKNSt13tuple_elementIXT_ES3_IJDpT0_EEE4typeERKSO_(ptr noundef nonnull align 8 dereferenceable(8) %0) #7 {
  %2 = alloca ptr, align 8
  store ptr %0, ptr %2, align 8, !tbaa !310
  %3 = load ptr, ptr %2, align 8, !tbaa !310
  %4 = call noundef nonnull align 8 dereferenceable(8) ptr @_ZSt12__get_helperILm0EPKN7testing16MatcherInterfaceIRKSt6vectorISt5tupleIJN12_GLOBAL__N_18FunctionEPKvN4absl13base_internal10ObjectKindEEESaISB_EEEEJSt14default_deleteISH_EEERKT0_RKSt11_Tuple_implIXT_EJSL_DpT1_EE(ptr noundef nonnull align 8 dereferenceable(8) %3) #3
  ret ptr %4
}

; Function Attrs: mustprogress nounwind uwtable
define internal noundef ptr @_ZNKSt15__uniq_ptr_implIKN7testing16MatcherInterfaceIRKSt6vectorISt5tupleIJN12_GLOBAL__N_18FunctionEPKvN4absl13base_internal10ObjectKindEEESaISB_EEEESt14default_deleteISH_EE6_M_ptrEv(ptr noundef nonnull align 8 dereferenceable(8) %0) #7 align 2 {
  %2 = alloca ptr, align 8
  store ptr %0, ptr %2, align 8, !tbaa !308
  %3 = load ptr, ptr %2, align 8
  %4 = getelementptr inbounds nuw %"class.std::__uniq_ptr_impl.71", ptr %3, i32 0, i32 0
  %5 = call noundef nonnull align 8 dereferenceable(8) ptr @_ZSt3getILm0EJPKN7testing16MatcherInterfaceIRKSt6vectorISt5tupleIJN12_GLOBAL__N_18FunctionEPKvN4absl13base_internal10ObjectKindEEESaISB_EEEESt14default_deleteISH_EEERKNSt13tuple_elementIXT_ES3_IJDpT0_EEE4typeERKSO_(ptr noundef nonnull align 8 dereferenceable(8) %4) #3
  %6 = load ptr, ptr %5, align 8, !tbaa !156
  ret ptr %6
}

; Function Attrs: mustprogress nounwind uwtable
define internal noundef ptr @_ZNKSt10unique_ptrIKN7testing16MatcherInterfaceIRKSt6vectorISt5tupleIJN12_GLOBAL__N_18FunctionEPKvN4absl13base_internal10ObjectKindEEESaISB_EEEESt14default_deleteISH_EE3getEv(ptr noundef nonnull align 8 dereferenceable(8) %0) #7 align 2 {
  %2 = alloca ptr, align 8
  store ptr %0, ptr %2, align 8, !tbaa !306
  %3 = load ptr, ptr %2, align 8
  %4 = getelementptr inbounds nuw %"class.std::unique_ptr.69", ptr %3, i32 0, i32 0
  %5 = call noundef ptr @_ZNKSt15__uniq_ptr_implIKN7testing16MatcherInterfaceIRKSt6vectorISt5tupleIJN12_GLOBAL__N_18FunctionEPKvN4absl13base_internal10ObjectKindEEESaISB_EEEESt14default_deleteISH_EE6_M_ptrEv(ptr noundef nonnull align 8 dereferenceable(8) %4) #3
  ret ptr %5
}

; Function Attrs: mustprogress nounwind uwtable
define internal noundef nonnull align 8 dereferenceable(8) ptr @_ZNKSt10unique_ptrIKN7testing16MatcherInterfaceIRKSt6vectorISt5tupleIJN12_GLOBAL__N_18FunctionEPKvN4absl13base_internal10ObjectKindEEESaISB_EEEESt14default_deleteISH_EEdeEv(ptr noundef nonnull align 8 dereferenceable(8) %0) #7 align 2 {
  %2 = alloca ptr, align 8
  store ptr %0, ptr %2, align 8, !tbaa !306
  %3 = load ptr, ptr %2, align 8
  br label %4

4:                                                ; preds = %1
  br label %5

5:                                                ; preds = %4
  br label %6

6:                                                ; preds = %5
  %7 = call noundef ptr @_ZNKSt10unique_ptrIKN7testing16MatcherInterfaceIRKSt6vectorISt5tupleIJN12_GLOBAL__N_18FunctionEPKvN4absl13base_internal10ObjectKindEEESaISB_EEEESt14default_deleteISH_EE3getEv(ptr noundef nonnull align 8 dereferenceable(8) %3) #3
  ret ptr %7
}

; Function Attrs: mustprogress nounwind uwtable
define internal noundef nonnull align 8 dereferenceable(8) ptr @_ZN7testing8internal11MatcherBaseIRKSt6vectorISt5tupleIJN12_GLOBAL__N_18FunctionEPKvN4absl13base_internal10ObjectKindEEESaISB_EEE11ValuePolicyIPKNS_16MatcherInterfaceISF_EELb1EE3GetERKSG_(ptr noundef nonnull align 8 dereferenceable(24) %0) #7 align 2 {
  %2 = alloca ptr, align 8
  store ptr %0, ptr %2, align 8, !tbaa !125
  %3 = load ptr, ptr %2, align 8, !tbaa !125
  %4 = getelementptr inbounds nuw %"class.testing::internal::MatcherBase", ptr %3, i32 0, i32 2
  %5 = load ptr, ptr %4, align 8, !tbaa !12
  %6 = getelementptr inbounds nuw %"struct.testing::internal::SharedPayload.68", ptr %5, i32 0, i32 1
  %7 = call noundef nonnull align 8 dereferenceable(8) ptr @_ZNKSt10unique_ptrIKN7testing16MatcherInterfaceIRKSt6vectorISt5tupleIJN12_GLOBAL__N_18FunctionEPKvN4absl13base_internal10ObjectKindEEESaISB_EEEESt14default_deleteISH_EEdeEv(ptr noundef nonnull align 8 dereferenceable(8) %6) #3
  ret ptr %7
}

; Function Attrs: mustprogress uwtable
define internal noundef zeroext i1 @_ZN7testing8internal11MatcherBaseIRKSt6vectorISt5tupleIJN12_GLOBAL__N_18FunctionEPKvN4absl13base_internal10ObjectKindEEESaISB_EEE19MatchAndExplainImplINSG_11ValuePolicyIPKNS_16MatcherInterfaceISF_EELb1EEEEEDTcldtclsrT_3Getfp_E15MatchAndExplainfp0_fp1_EERKSG_SF_PNS_19MatchResultListenerE(ptr noundef nonnull align 8 dereferenceable(24) %0, ptr noundef nonnull align 8 dereferenceable(24) %1, ptr noundef %2) #4 align 2 {
  %4 = alloca ptr, align 8
  %5 = alloca ptr, align 8
  %6 = alloca ptr, align 8
  store ptr %0, ptr %4, align 8, !tbaa !125
  store ptr %1, ptr %5, align 8, !tbaa !10
  store ptr %2, ptr %6, align 8, !tbaa !141
  %7 = load ptr, ptr %4, align 8, !tbaa !125
  %8 = call noundef nonnull align 8 dereferenceable(8) ptr @_ZN7testing8internal11MatcherBaseIRKSt6vectorISt5tupleIJN12_GLOBAL__N_18FunctionEPKvN4absl13base_internal10ObjectKindEEESaISB_EEE11ValuePolicyIPKNS_16MatcherInterfaceISF_EELb1EE3GetERKSG_(ptr noundef nonnull align 8 dereferenceable(24) %7)
  %9 = load ptr, ptr %5, align 8, !tbaa !10
  %10 = load ptr, ptr %6, align 8, !tbaa !141
  %11 = load ptr, ptr %8, align 8, !tbaa !34
  %12 = getelementptr inbounds ptr, ptr %11, i64 4
  %13 = load ptr, ptr %12, align 8
  %14 = call noundef zeroext i1 %13(ptr noundef nonnull align 8 dereferenceable(8) %8, ptr noundef nonnull align 8 dereferenceable(24) %9, ptr noundef %10)
  ret i1 %14
}