; Function Attrs: mustprogress uwtable
define internal noundef zeroext i1 @_ZN7testing8internal11MatcherBaseIRKSt6vectorISt5tupleIJN12_GLOBAL__N_18FunctionEPKvN4absl13base_internal10ObjectKindEEESaISB_EEE19MatchAndExplainImplINSG_11ValuePolicyIPKNS_16MatcherInterfaceISF_EELb1EEEEEDTcldtclsrT_3Getfp_E15MatchAndExplainfp0_fp1_EERKSG_SF_PNS_19MatchResultListenerE(ptr noundef nonnull readonly align 8 captures(none) dereferenceable(24) %0, ptr noundef nonnull align 8 dereferenceable(24) %1, ptr noundef %2) #3 align 2 {
  %4 = getelementptr inbounds nuw i8, ptr %0, i64 16
  %.val = load ptr, ptr %4, align 8, !tbaa !22
  %5 = getelementptr i8, ptr %.val, i64 8
  %.val.val = load ptr, ptr %5, align 8, !tbaa !162
  %6 = load ptr, ptr %.val.val, align 8, !tbaa !31
  %7 = getelementptr inbounds nuw i8, ptr %6, i64 32
  %8 = load ptr, ptr %7, align 8
  %9 = tail call noundef zeroext i1 %8(ptr noundef nonnull align 8 dereferenceable(8) %.val.val, ptr noundef nonnull align 8 dereferenceable(24) %1, ptr noundef %2)
  ret i1 %9
}